target datalayout = "e-m:e-p270:32:32-p271:32:32-p272:64:64-i64:64-i128:128-f80:128-n8:16:32:64-S128"
target triple = "x86_64-unknown-linux-gnu"

%class.btDiscreteDynamicsWorld = type <{ %class.btDynamicsWorld, %class.btAlignedObjectArray.0, ptr, ptr, ptr, %class.btAlignedObjectArray.0, %class.btAlignedObjectArray.4, %class.btVector3, float, float, i8, i8, i8, i8, [4 x i8], %class.btAlignedObjectArray.8, i32, i8, [3 x i8], %class.btAlignedObjectArray.12, %class.btSpinMutex, [4 x i8] }>
%class.btDynamicsWorld = type { %class.btCollisionWorld.base, ptr, ptr, ptr, %struct.btContactSolverInfo }
%class.btCollisionWorld.base = type <{ ptr, %class.btAlignedObjectArray, ptr, %struct.btDispatcherInfo, ptr, ptr, i8 }>
%class.btAlignedObjectArray = type <{ %class.btAlignedAllocator, [3 x i8], i32, i32, [4 x i8], ptr, i8, [7 x i8] }>
%class.btAlignedAllocator = type { i8 }
%struct.btDispatcherInfo = type <{ float, i32, i32, float, i8, [7 x i8], ptr, i8, i8, i8, i8, float, i8, [3 x i8], float, i8, [7 x i8] }>
%struct.btContactSolverInfo = type { %struct.btContactSolverInfoData }
%struct.btContactSolverInfoData = type { float, float, float, float, float, i32, float, float, float, float, float, float, float, float, float, float, i32, float, float, float, float, float, i32, i32, i32, float, float, float, float, i8, i8, i32, i32 }
%class.btAlignedObjectArray.0 = type <{ %class.btAlignedAllocator.1, [3 x i8], i32, i32, [4 x i8], ptr, i8, [7 x i8] }>
%class.btAlignedAllocator.1 = type { i8 }
%class.btAlignedObjectArray.4 = type <{ %class.btAlignedAllocator.5, [3 x i8], i32, i32, [4 x i8], ptr, i8, [7 x i8] }>
%class.btAlignedAllocator.5 = type { i8 }
%class.btVector3 = type { [4 x float] }
%class.btAlignedObjectArray.8 = type <{ %class.btAlignedAllocator.9, [3 x i8], i32, i32, [4 x i8], ptr, i8, [7 x i8] }>
%class.btAlignedAllocator.9 = type { i8 }
%class.btAlignedObjectArray.12 = type <{ %class.btAlignedAllocator.13, [3 x i8], i32, i32, [4 x i8], ptr, i8, [7 x i8] }>
%class.btAlignedAllocator.13 = type { i8 }
%class.btSpinMutex = type { i32 }
%class.btTypedConstraint = type { ptr, %struct.btTypedObject, i32, %union.anon.40, float, i8, i8, i32, ptr, ptr, float, float, ptr }
%struct.btTypedObject = type { i32 }
%union.anon.40 = type { ptr }

; Function Attrs: mustprogress nounwind uwtable
define linkonce_odr dso_local void @_ZN20btAlignedObjectArrayIP17btTypedConstraintE8pop_backEv(ptr noundef nonnull align 8 dereferenceable(25) %this) #1 comdat align 2 {
entry:
  %this.addr = alloca ptr, align 8
  store ptr %this, ptr %this.addr, align 8
  %this1 = load ptr, ptr %this.addr, align 8
  %m_size = getelementptr inbounds %class.btAlignedObjectArray.0, ptr %this1, i32 0, i32 2
  %0 = load i32, ptr %m_size, align 4
  %dec = add nsw i32 %0, -1
  store i32 %dec, ptr %m_size, align 4
  ret void
}

; Function Attrs: mustprogress nounwind uwtable
define linkonce_odr dso_local void @_ZN20btAlignedObjectArrayIP17btTypedConstraintE4swapEii(ptr noundef nonnull align 8 dereferenceable(25) %this, i32 noundef %index0, i32 noundef %index1) #1 comdat align 2 {
entry:
  %this.addr = alloca ptr, align 8
  %index0.addr = alloca i32, align 4
  %index1.addr = alloca i32, align 4
  %temp = alloca ptr, align 8
  store ptr %this, ptr %this.addr, align 8
  store i32 %index0, ptr %index0.addr, align 4
  store i32 %index1, ptr %index1.addr, align 4
  %this1 = load ptr, ptr %this.addr, align 8
  %m_data = getelementptr inbounds %class.btAlignedObjectArray.0, ptr %this1, i32 0, i32 5
  %0 = load ptr, ptr %m_data, align 8
  %1 = load i32, ptr %index0.addr, align 4
  %idxprom = sext i32 %1 to i64
  %arrayidx = getelementptr inbounds ptr, ptr %0, i64 %idxprom
  %2 = load ptr, ptr %arrayidx, align 8
  store ptr %2, ptr %temp, align 8
  %m_data2 = getelementptr inbounds %class.btAlignedObjectArray.0, ptr %this1, i32 0, i32 5
  %3 = load ptr, ptr %m_data2, align 8
  %4 = load i32, ptr %index1.addr, align 4
  %idxprom3 = sext i32 %4 to i64
  %arrayidx4 = getelementptr inbounds ptr, ptr %3, i64 %idxprom3
  %5 = load ptr, ptr %arrayidx4, align 8
  %m_data5 = getelementptr inbounds %class.btAlignedObjectArray.0, ptr %this1, i32 0, i32 5
  %6 = load ptr, ptr %m_data5, align 8
  %7 = load i32, ptr %index0.addr, align 4
  %idxprom6 = sext i32 %7 to i64
  %arrayidx7 = getelementptr inbounds ptr, ptr %6, i64 %idxprom6
  store ptr %5, ptr %arrayidx7, align 8
  %8 = load ptr, ptr %temp, align 8
  %m_data8 = getelementptr inbounds %class.btAlignedObjectArray.0, ptr %this1, i32 0, i32 5
  %9 = load ptr, ptr %m_data8, align 8
  %10 = load i32, ptr %index1.addr, align 4
  %idxprom9 = sext i32 %10 to i64
  %arrayidx10 = getelementptr inbounds ptr, ptr %9, i64 %idxprom9
  store ptr %8, ptr %arrayidx10, align 8
  ret void
}

; Function Attrs: mustprogress nounwind uwtable
define linkonce_odr dso_local noundef i32 @_ZNK20btAlignedObjectArrayIP17btTypedConstraintE4sizeEv(ptr noundef nonnull align 8 dereferenceable(25) %this) #1 comdat align 2 {
entry:
  %this.addr = alloca ptr, align 8
  store ptr %this, ptr %this.addr, align 8
  %this1 = load ptr, ptr %this.addr, align 8
  %m_size = getelementptr inbounds %class.btAlignedObjectArray.0, ptr %this1, i32 0, i32 2
  %0 = load i32, ptr %m_size, align 4
  ret i32 %0
}

; Function Attrs: mustprogress uwtable
define linkonce_odr dso_local void @_ZN20btAlignedObjectArrayIP17btTypedConstraintE13removeAtIndexEi(ptr noundef nonnull align 8 dereferenceable(25) %this, i32 noundef %index) #2 comdat align 2 {
entry:
  %this.addr = alloca ptr, align 8
  %index.addr = alloca i32, align 4
  store ptr %this, ptr %this.addr, align 8
  store i32 %index, ptr %index.addr, align 4
  %this1 = load ptr, ptr %this.addr, align 8
  %0 = load i32, ptr %index.addr, align 4
  %call = call noundef i32 @_ZNK20btAlignedObjectArrayIP17btTypedConstraintE4sizeEv(ptr noundef nonnull align 8 dereferenceable(25) %this1)
  %cmp = icmp slt i32 %0, %call
  br i1 %cmp, label %if.then, label %if.end

if.then:                                          ; preds = %entry
  %1 = load i32, ptr %index.addr, align 4
  %call2 = call noundef i32 @_ZNK20btAlignedObjectArrayIP17btTypedConstraintE4sizeEv(ptr noundef nonnull align 8 dereferenceable(25) %this1)
  %sub = sub nsw i32 %call2, 1
  call void @_ZN20btAlignedObjectArrayIP17btTypedConstraintE4swapEii(ptr noundef nonnull align 8 dereferenceable(25) %this1, i32 noundef %1, i32 noundef %sub)
  call void @_ZN20btAlignedObjectArrayIP17btTypedConstraintE8pop_backEv(ptr noundef nonnull align 8 dereferenceable(25) %this1)
  br label %if.end

if.end:                                           ; preds = %if.then, %entry
  ret void
}

; Function Attrs: mustprogress nounwind uwtable
define linkonce_odr dso_local noundef i32 @_ZNK20btAlignedObjectArrayIP17btTypedConstraintE16findLinearSearchERKS1_(ptr noundef nonnull align 8 dereferenceable(25) %this, ptr noundef nonnull align 8 dereferenceable(8) %key) #1 comdat align 2 {
entry:
  %this.addr = alloca ptr, align 8
  %key.addr = alloca ptr, align 8
  %index = alloca i32, align 4
  %i = alloca i32, align 4
  store ptr %this, ptr %this.addr, align 8
  store ptr %key, ptr %key.addr, align 8
  %this1 = load ptr, ptr %this.addr, align 8
  %call = call noundef i32 @_ZNK20btAlignedObjectArrayIP17btTypedConstraintE4sizeEv(ptr noundef nonnull align 8 dereferenceable(25) %this1)
  store i32 %call, ptr %index, align 4
  store i32 0, ptr %i, align 4
  br label %for.cond

for.cond:                                         ; preds = %for.inc, %entry
  %0 = load i32, ptr %i, align 4
  %call2 = call noundef i32 @_ZNK20btAlignedObjectArrayIP17btTypedConstraintE4sizeEv(ptr noundef nonnull align 8 dereferenceable(25) %this1)
  %cmp = icmp slt i32 %0, %call2
  br i1 %cmp, label %for.body, label %for.end

for.body:                                         ; preds = %for.cond
  %m_data = getelementptr inbounds %class.btAlignedObjectArray.0, ptr %this1, i32 0, i32 5
  %1 = load ptr, ptr %m_data, align 8
  %2 = load i32, ptr %i, align 4
  %idxprom = sext i32 %2 to i64
  %arrayidx = getelementptr inbounds ptr, ptr %1, i64 %idxprom
  %3 = load ptr, ptr %arrayidx, align 8
  %4 = load ptr, ptr %key.addr, align 8
  %5 = load ptr, ptr %4, align 8
  %cmp3 = icmp eq ptr %3, %5
  br i1 %cmp3, label %if.then, label %if.end

if.then:                                          ; preds = %for.body
  %6 = load i32, ptr %i, align 4
  store i32 %6, ptr %index, align 4
  br label %for.end

if.end:                                           ; preds = %for.body
  br label %for.inc

for.inc:                                          ; preds = %if.end
  %7 = load i32, ptr %i, align 4
  %inc = add nsw i32 %7, 1
  store i32 %inc, ptr %i, align 4
  br label %for.cond, !llvm.loop !52

for.end:                                          ; preds = %if.then, %for.cond
  %8 = load i32, ptr %index, align 4
  ret i32 %8
}

; Function Attrs: mustprogress nounwind uwtable
define linkonce_odr dso_local noundef nonnull align 8 dereferenceable(744) ptr @_ZN17btTypedConstraint13getRigidBodyBEv(ptr noundef nonnull align 8 dereferenceable(72) %this) #1 comdat align 2 {
entry:
  %this.addr = alloca ptr, align 8
  store ptr %this, ptr %this.addr, align 8
  %this1 = load ptr, ptr %this.addr, align 8
  %m_rbB = getelementptr inbounds %class.btTypedConstraint, ptr %this1, i32 0, i32 9
  %0 = load ptr, ptr %m_rbB, align 8
  ret ptr %0
}

; Function Attrs: mustprogress nounwind uwtable
define linkonce_odr dso_local noundef nonnull align 8 dereferenceable(744) ptr @_ZN17btTypedConstraint13getRigidBodyAEv(ptr noundef nonnull align 8 dereferenceable(72) %this) #1 comdat align 2 {
entry:
  %this.addr = alloca ptr, align 8
  store ptr %this, ptr %this.addr, align 8
  %this1 = load ptr, ptr %this.addr, align 8
  %m_rbA = getelementptr inbounds %class.btTypedConstraint, ptr %this1, i32 0, i32 8
  %0 = load ptr, ptr %m_rbA, align 8
  ret ptr %0
}

; Function Attrs: mustprogress uwtable
define linkonce_odr dso_local void @_ZN20btAlignedObjectArrayIP17btTypedConstraintE6removeERKS1_(ptr noundef nonnull align 8 dereferenceable(25) %this, ptr noundef nonnull align 8 dereferenceable(8) %key) #2 comdat align 2 {
entry:
  %this.addr = alloca ptr, align 8
  %key.addr = alloca ptr, align 8
  %findIndex = alloca i32, align 4
  store ptr %this, ptr %this.addr, align 8
  store ptr %key, ptr %key.addr, align 8
  %this1 = load ptr, ptr %this.addr, align 8
  %0 = load ptr, ptr %key.addr, align 8
  %call = call noundef i32 @_ZNK20btAlignedObjectArrayIP17btTypedConstraintE16findLinearSearchERKS1_(ptr noundef nonnull align 8 dereferenceable(25) %this1, ptr noundef nonnull align 8 dereferenceable(8) %0)
  store i32 %call, ptr %findIndex, align 4
  %1 = load i32, ptr %findIndex, align 4
  call void @_ZN20btAlignedObjectArrayIP17btTypedConstraintE13removeAtIndexEi(ptr noundef nonnull align 8 dereferenceable(25) %this1, i32 noundef %1)
  ret void
}

; Function Attrs: mustprogress uwtable
define dso_local void @_ZN23btDiscreteDynamicsWorld16removeConstraintEP17btTypedConstraint(ptr noundef nonnull align 8 dereferenceable(508) %this, ptr noundef %constraint) unnamed_addr #2 align 2 {
entry:
  %this.addr = alloca ptr, align 8
  %constraint.addr = alloca ptr, align 8
  store ptr %this, ptr %this.addr, align 8
  store ptr %constraint, ptr %constraint.addr, align 8
  %this1 = load ptr, ptr %this.addr, align 8
  %m_constraints = getelementptr inbounds %class.btDiscreteDynamicsWorld, ptr %this1, i32 0, i32 5
  call void @_ZN20btAlignedObjectArrayIP17btTypedConstraintE6removeERKS1_(ptr noundef nonnull align 8 dereferenceable(25) %m_constraints, ptr noundef nonnull align 8 dereferenceable(8) %constraint.addr)
  %0 = load ptr, ptr %constraint.addr, align 8
  %call = call noundef nonnull align 8 dereferenceable(744) ptr @_ZN17btTypedConstraint13getRigidBodyAEv(ptr noundef nonnull align 8 dereferenceable(72) %0)
  %1 = load ptr, ptr %constraint.addr, align 8
  call void @_ZN11btRigidBody19removeConstraintRefEP17btTypedConstraint(ptr noundef nonnull align 8 dereferenceable(744) %call, ptr noundef %1)
  %2 = load ptr, ptr %constraint.addr, align 8
  %call2 = call noundef nonnull align 8 dereferenceable(744) ptr @_ZN17btTypedConstraint13getRigidBodyBEv(ptr noundef nonnull align 8 dereferenceable(72) %2)
  %3 = load ptr, ptr %constraint.addr, align 8
  call void @_ZN11btRigidBody19removeConstraintRefEP17btTypedConstraint(ptr noundef nonnull align 8 dereferenceable(744) %call2, ptr noundef %3)
  ret void
}